; Function Attrs: nounwind uwtable
define ptr @l_Lake_LeanLib_rootDir(ptr noundef %0) local_unnamed_addr #0 {
  %2 = getelementptr inbounds nuw i8, ptr %0, i64 8
  %3 = load ptr, ptr %2, align 8, !tbaa !4
  %4 = ptrtoint ptr %3 to i64
  %5 = and i64 %4, 1
  %.not = icmp eq i64 %5, 0
  br i1 %.not, label %6, label %lean_inc.exit29

6:                                                ; preds = %1
  %.val.i = load i32, ptr %3, align 4, !tbaa !8
  %7 = icmp sgt i32 %.val.i, 0
  br i1 %7, label %8, label %10, !prof !11

8:                                                ; preds = %6
  %9 = add nuw i32 %.val.i, 1
  store i32 %9, ptr %3, align 4, !tbaa !8
  br label %lean_inc.exit29

10:                                               ; preds = %6
  %.not.i45 = icmp eq i32 %.val.i, 0
  br i1 %.not.i45, label %lean_inc.exit29, label %11

11:                                               ; preds = %10
  tail call void @lean_inc_ref_cold(ptr noundef nonnull %3) #4
  br label %lean_inc.exit29

lean_inc.exit29:                                  ; preds = %11, %10, %8, %1
  %12 = getelementptr inbounds nuw i8, ptr %3, i64 16
  %13 = load ptr, ptr %12, align 8, !tbaa !4
  %14 = ptrtoint ptr %13 to i64
  %15 = and i64 %14, 1
  %.not61 = icmp eq i64 %15, 0
  br i1 %.not61, label %16, label %lean_inc.exit28

16:                                               ; preds = %lean_inc.exit29
  %.val.i46 = load i32, ptr %13, align 4, !tbaa !8
  %17 = icmp sgt i32 %.val.i46, 0
  br i1 %17, label %18, label %20, !prof !11

18:                                               ; preds = %16
  %19 = add nuw i32 %.val.i46, 1
  store i32 %19, ptr %13, align 4, !tbaa !8
  br label %lean_inc.exit28

20:                                               ; preds = %16
  %.not.i47 = icmp eq i32 %.val.i46, 0
  br i1 %.not.i47, label %lean_inc.exit28, label %21

21:                                               ; preds = %20
  tail call void @lean_inc_ref_cold(ptr noundef nonnull %13) #4
  br label %lean_inc.exit28

lean_inc.exit28:                                  ; preds = %21, %20, %18, %lean_inc.exit29
  %22 = getelementptr inbounds nuw i8, ptr %3, i64 32
  %23 = load ptr, ptr %22, align 8, !tbaa !4
  %24 = ptrtoint ptr %23 to i64
  %25 = and i64 %24, 1
  %.not62 = icmp eq i64 %25, 0
  br i1 %.not62, label %26, label %lean_inc.exit27

26:                                               ; preds = %lean_inc.exit28
  %.val.i49 = load i32, ptr %23, align 4, !tbaa !8
  %27 = icmp sgt i32 %.val.i49, 0
  br i1 %27, label %28, label %30, !prof !11

28:                                               ; preds = %26
  %29 = add nuw i32 %.val.i49, 1
  store i32 %29, ptr %23, align 4, !tbaa !8
  br label %lean_inc.exit27

30:                                               ; preds = %26
  %.not.i50 = icmp eq i32 %.val.i49, 0
  br i1 %.not.i50, label %lean_inc.exit27, label %31

31:                                               ; preds = %30
  tail call void @lean_inc_ref_cold(ptr noundef nonnull %23) #4
  br label %lean_inc.exit27

lean_inc.exit27:                                  ; preds = %31, %30, %28, %lean_inc.exit28
  br i1 %.not, label %32, label %lean_dec.exit34

32:                                               ; preds = %lean_inc.exit27
  %33 = load i32, ptr %3, align 4, !tbaa !8
  %34 = icmp sgt i32 %33, 1
  br i1 %34, label %35, label %37, !prof !11

35:                                               ; preds = %32
  %36 = add nsw i32 %33, -1
  store i32 %36, ptr %3, align 4, !tbaa !8
  br label %lean_dec.exit34

37:                                               ; preds = %32
  %.not.i = icmp eq i32 %33, 0
  br i1 %.not.i, label %lean_dec.exit34, label %38

38:                                               ; preds = %37
  tail call void @lean_dec_ref_cold(ptr noundef nonnull %3) #4
  br label %lean_dec.exit34

lean_dec.exit34:                                  ; preds = %38, %37, %35, %lean_inc.exit27
  %39 = getelementptr inbounds nuw i8, ptr %23, i64 48
  %40 = load ptr, ptr %39, align 8, !tbaa !4
  %41 = ptrtoint ptr %40 to i64
  %42 = and i64 %41, 1
  %.not63 = icmp eq i64 %42, 0
  br i1 %.not63, label %43, label %lean_inc.exit26

43:                                               ; preds = %lean_dec.exit34
  %.val.i52 = load i32, ptr %40, align 4, !tbaa !8
  %44 = icmp sgt i32 %.val.i52, 0
  br i1 %44, label %45, label %47, !prof !11

45:                                               ; preds = %43
  %46 = add nuw i32 %.val.i52, 1
  store i32 %46, ptr %40, align 4, !tbaa !8
  br label %lean_inc.exit26

47:                                               ; preds = %43
  %.not.i53 = icmp eq i32 %.val.i52, 0
  br i1 %.not.i53, label %lean_inc.exit26, label %48

48:                                               ; preds = %47
  tail call void @lean_inc_ref_cold(ptr noundef nonnull %40) #4
  br label %lean_inc.exit26

lean_inc.exit26:                                  ; preds = %48, %47, %45, %lean_dec.exit34
  br i1 %.not62, label %49, label %lean_dec.exit33

49:                                               ; preds = %lean_inc.exit26
  %50 = load i32, ptr %23, align 4, !tbaa !8
  %51 = icmp sgt i32 %50, 1
  br i1 %51, label %52, label %54, !prof !11

52:                                               ; preds = %49
  %53 = add nsw i32 %50, -1
  store i32 %53, ptr %23, align 4, !tbaa !8
  br label %lean_dec.exit33

54:                                               ; preds = %49
  %.not.i35 = icmp eq i32 %50, 0
  br i1 %.not.i35, label %lean_dec.exit33, label %55

55:                                               ; preds = %54
  tail call void @lean_dec_ref_cold(ptr noundef nonnull %23) #4
  br label %lean_dec.exit33

lean_dec.exit33:                                  ; preds = %55, %54, %52, %lean_inc.exit26
  %56 = tail call ptr @l_System_FilePath_normalize(ptr noundef %40) #4
  %57 = tail call ptr @l_Lake_joinRelative(ptr noundef %13, ptr noundef %56) #4
  %58 = ptrtoint ptr %56 to i64
  %59 = and i64 %58, 1
  %.not64 = icmp eq i64 %59, 0
  br i1 %.not64, label %60, label %lean_dec.exit32

60:                                               ; preds = %lean_dec.exit33
  %61 = load i32, ptr %56, align 4, !tbaa !8
  %62 = icmp sgt i32 %61, 1
  br i1 %62, label %63, label %65, !prof !11

63:                                               ; preds = %60
  %64 = add nsw i32 %61, -1
  store i32 %64, ptr %56, align 4, !tbaa !8
  br label %lean_dec.exit32

65:                                               ; preds = %60
  %.not.i37 = icmp eq i32 %61, 0
  br i1 %.not.i37, label %lean_dec.exit32, label %66

66:                                               ; preds = %65
  tail call void @lean_dec_ref_cold(ptr noundef nonnull %56) #4
  br label %lean_dec.exit32

lean_dec.exit32:                                  ; preds = %66, %65, %63, %lean_dec.exit33
  %67 = getelementptr inbounds nuw i8, ptr %0, i64 24
  %68 = load ptr, ptr %67, align 8, !tbaa !4
  %69 = ptrtoint ptr %68 to i64
  %70 = and i64 %69, 1
  %.not65 = icmp eq i64 %70, 0
  br i1 %.not65, label %71, label %lean_inc.exit25

71:                                               ; preds = %lean_dec.exit32
  %.val.i55 = load i32, ptr %68, align 4, !tbaa !8
  %72 = icmp sgt i32 %.val.i55, 0
  br i1 %72, label %73, label %75, !prof !11

73:                                               ; preds = %71
  %74 = add nuw i32 %.val.i55, 1
  store i32 %74, ptr %68, align 4, !tbaa !8
  br label %lean_inc.exit25

75:                                               ; preds = %71
  %.not.i56 = icmp eq i32 %.val.i55, 0
  br i1 %.not.i56, label %lean_inc.exit25, label %76

76:                                               ; preds = %75
  tail call void @lean_inc_ref_cold(ptr noundef nonnull %68) #4
  br label %lean_inc.exit25

lean_inc.exit25:                                  ; preds = %76, %75, %73, %lean_dec.exit32
  %77 = ptrtoint ptr %0 to i64
  %78 = and i64 %77, 1
  %.not66 = icmp eq i64 %78, 0
  br i1 %.not66, label %79, label %lean_dec.exit31

79:                                               ; preds = %lean_inc.exit25
  %80 = load i32, ptr %0, align 4, !tbaa !8
  %81 = icmp sgt i32 %80, 1
  br i1 %81, label %82, label %84, !prof !11

82:                                               ; preds = %79
  %83 = add nsw i32 %80, -1
  store i32 %83, ptr %0, align 4, !tbaa !8
  br label %lean_dec.exit31

84:                                               ; preds = %79
  %.not.i39 = icmp eq i32 %80, 0
  br i1 %.not.i39, label %lean_dec.exit31, label %85

85:                                               ; preds = %84
  tail call void @lean_dec_ref_cold(ptr noundef nonnull %0) #4
  br label %lean_dec.exit31

lean_dec.exit31:                                  ; preds = %85, %84, %82, %lean_inc.exit25
  %86 = getelementptr inbounds nuw i8, ptr %68, i64 16
  %87 = load ptr, ptr %86, align 8, !tbaa !4
  %88 = ptrtoint ptr %87 to i64
  %89 = and i64 %88, 1
  %.not67 = icmp eq i64 %89, 0
  br i1 %.not67, label %90, label %lean_inc.exit

90:                                               ; preds = %lean_dec.exit31
  %.val.i58 = load i32, ptr %87, align 4, !tbaa !8
  %91 = icmp sgt i32 %.val.i58, 0
  br i1 %91, label %92, label %94, !prof !11

92:                                               ; preds = %90
  %93 = add nuw i32 %.val.i58, 1
  store i32 %93, ptr %87, align 4, !tbaa !8
  br label %lean_inc.exit

94:                                               ; preds = %90
  %.not.i59 = icmp eq i32 %.val.i58, 0
  br i1 %.not.i59, label %lean_inc.exit, label %95

95:                                               ; preds = %94
  tail call void @lean_inc_ref_cold(ptr noundef nonnull %87) #4
  br label %lean_inc.exit

lean_inc.exit:                                    ; preds = %95, %94, %92, %lean_dec.exit31
  br i1 %.not65, label %96, label %lean_dec.exit30

96:                                               ; preds = %lean_inc.exit
  %97 = load i32, ptr %68, align 4, !tbaa !8
  %98 = icmp sgt i32 %97, 1
  br i1 %98, label %99, label %101, !prof !11

99:                                               ; preds = %96
  %100 = add nsw i32 %97, -1
  store i32 %100, ptr %68, align 4, !tbaa !8
  br label %lean_dec.exit30

101:                                              ; preds = %96
  %.not.i41 = icmp eq i32 %97, 0
  br i1 %.not.i41, label %lean_dec.exit30, label %102

102:                                              ; preds = %101
  tail call void @lean_dec_ref_cold(ptr noundef nonnull %68) #4
  br label %lean_dec.exit30

lean_dec.exit30:                                  ; preds = %102, %101, %99, %lean_inc.exit
  %103 = tail call ptr @l_System_FilePath_normalize(ptr noundef %87) #4
  %104 = tail call ptr @l_Lake_joinRelative(ptr noundef %57, ptr noundef %103) #4
  %105 = ptrtoint ptr %103 to i64
  %106 = and i64 %105, 1
  %.not68 = icmp eq i64 %106, 0
  br i1 %.not68, label %107, label %lean_dec.exit

107:                                              ; preds = %lean_dec.exit30
  %108 = load i32, ptr %103, align 4, !tbaa !8
  %109 = icmp sgt i32 %108, 1
  br i1 %109, label %110, label %112, !prof !11

110:                                              ; preds = %107
  %111 = add nsw i32 %108, -1
  store i32 %111, ptr %103, align 4, !tbaa !8
  br label %lean_dec.exit

112:                                              ; preds = %107
  %.not.i43 = icmp eq i32 %108, 0
  br i1 %.not.i43, label %lean_dec.exit, label %113

113:                                              ; preds = %112
  tail call void @lean_dec_ref_cold(ptr noundef nonnull %103) #4
  br label %lean_dec.exit

lean_dec.exit:                                    ; preds = %113, %112, %110, %lean_dec.exit30
  ret ptr %104
}